target datalayout = "e-m:e-p270:32:32-p271:32:32-p272:64:64-i64:64-i128:128-f80:128-n8:16:32:64-S128"
target triple = "x86_64-unknown-linux-gnu"

%"struct.std::_Vector_base" = type { %"struct.std::_Vector_base<std::unique_ptr<node::DataQueue::Entry>, std::allocator<std::unique_ptr<node::DataQueue::Entry>>>::_Vector_impl" }
%"struct.std::_Vector_base<std::unique_ptr<node::DataQueue::Entry>, std::allocator<std::unique_ptr<node::DataQueue::Entry>>>::_Vector_impl" = type { %"struct.std::_Vector_base<std::unique_ptr<node::DataQueue::Entry>, std::allocator<std::unique_ptr<node::DataQueue::Entry>>>::_Vector_impl_data" }
%"struct.std::_Vector_base<std::unique_ptr<node::DataQueue::Entry>, std::allocator<std::unique_ptr<node::DataQueue::Entry>>>::_Vector_impl_data" = type { ptr, ptr, ptr }
%"class.std::optional" = type { %"struct.std::_Optional_base" }
%"struct.std::_Optional_base" = type { %"struct.std::_Optional_payload" }
%"struct.std::_Optional_payload" = type { %"struct.std::_Optional_payload_base.base", [7 x i8] }
%"struct.std::_Optional_payload_base.base" = type <{ %"union.std::_Optional_payload_base<unsigned long>::_Storage", i8 }>
%"union.std::_Optional_payload_base<unsigned long>::_Storage" = type { i64 }
%"class.node::MemoryRetainer" = type { ptr }
%"struct.std::__detail::_Hash_node_base" = type { ptr }
%"struct.std::__detail::_Prime_rehash_policy" = type { float, i64 }
%"class.std::__weak_count" = type { ptr }
%"class.node::(anonymous namespace)::DataQueueImpl" = type { %"class.node::DataQueue", %"class.std::enable_shared_from_this.432", %"class.std::vector", i8, [7 x i8], %"class.std::optional", %"class.std::optional", i8, %"class.std::unordered_set.435" }
%"class.node::DataQueue" = type { %"class.node::MemoryRetainer" }
%"class.std::enable_shared_from_this.432" = type { %"class.std::weak_ptr.433" }
%"class.std::weak_ptr.433" = type { %"class.std::__weak_ptr.434" }
%"class.std::__weak_ptr.434" = type { ptr, %"class.std::__weak_count" }
%"class.std::vector" = type { %"struct.std::_Vector_base" }
%"class.std::unordered_set.435" = type { %"class.std::_Hashtable.436" }
%"class.std::_Hashtable.436" = type { ptr, i64, %"struct.std::__detail::_Hash_node_base", i64, %"struct.std::__detail::_Prime_rehash_policy", ptr }

; Function Attrs: mustprogress nounwind uwtable
define internal { i64, i8 } @_ZNK4node12_GLOBAL__N_113DataQueueImpl4sizeEv(ptr noundef nonnull align 8 dereferenceable(152) %this) unnamed_addr #4 align 2 {
entry:
  %retval = alloca %"class.std::optional", align 8
  %this.addr = alloca ptr, align 8
  store ptr %this, ptr %this.addr, align 8
  %this1 = load ptr, ptr %this.addr, align 8
  %size_ = getelementptr inbounds %"class.node::(anonymous namespace)::DataQueueImpl", ptr %this1, i32 0, i32 5
  call void @llvm.memcpy.p0.p0.i64(ptr align 8 %retval, ptr align 8 %size_, i64 16, i1 false)
  %coerce.dive = getelementptr inbounds %"class.std::optional", ptr %retval, i32 0, i32 0
  %coerce.dive2 = getelementptr inbounds %"struct.std::_Optional_base", ptr %coerce.dive, i32 0, i32 0
  %0 = load { i64, i8 }, ptr %coerce.dive2, align 8
  ret { i64, i8 } %0
}