; Function Attrs: mustprogress nofree norecurse nosync nounwind willreturn memory(argmem: read) uwtable
define internal { i64, i8 } @_ZNK4node12_GLOBAL__N_113DataQueueImpl4sizeEv(ptr nocapture noundef nonnull readonly align 8 dereferenceable(152) %this) unnamed_addr #12 align 2 {
entry:
  %size_ = getelementptr inbounds i8, ptr %this, i64 56
  %retval.sroa.0.0.copyload = load i64, ptr %size_, align 8
  %retval.sroa.2.0.size_.sroa_idx = getelementptr inbounds i8, ptr %this, i64 64
  %retval.sroa.2.0.copyload = load i8, ptr %retval.sroa.2.0.size_.sroa_idx, align 8
  %.fca.0.insert = insertvalue { i64, i8 } poison, i64 %retval.sroa.0.0.copyload, 0
  %.fca.1.insert = insertvalue { i64, i8 } %.fca.0.insert, i8 %retval.sroa.2.0.copyload, 1
  ret { i64, i8 } %.fca.1.insert
}